; Function Attrs: nounwind uwtable
define noalias nonnull ptr @l_Lean_Elab_Tactic_BVDecide_Frontend_Normalize_bool__and___lambda__5(ptr noundef %0, ptr noundef %1, ptr readnone captures(none) %2, ptr readnone captures(none) %3, ptr readnone captures(none) %4, ptr readnone captures(none) %5, ptr readnone captures(none) %6, ptr noundef %7) local_unnamed_addr #0 {
  %9 = load ptr, ptr @l_Lean_Elab_Tactic_BVDecide_Frontend_Normalize_bool__and___lambda__5___closed__3, align 8, !tbaa !4
  %10 = ptrtoint ptr %1 to i64
  %11 = and i64 %10, 1
  %.not = icmp eq i64 %11, 0
  br i1 %.not, label %12, label %lean_inc.exit24

12:                                               ; preds = %8
  %.val.i = load i32, ptr %1, align 4, !tbaa !8
  %13 = icmp sgt i32 %.val.i, 0
  br i1 %13, label %14, label %16, !prof !11

14:                                               ; preds = %12
  %15 = add nuw i32 %.val.i, 1
  store i32 %15, ptr %1, align 4, !tbaa !8
  br label %lean_inc.exit24

16:                                               ; preds = %12
  %.not.i = icmp eq i32 %.val.i, 0
  br i1 %.not.i, label %lean_inc.exit24, label %17

17:                                               ; preds = %16
  tail call void @lean_inc_ref_cold(ptr noundef nonnull %1) #5
  br label %lean_inc.exit24

lean_inc.exit24:                                  ; preds = %17, %16, %14, %8
  %18 = ptrtoint ptr %0 to i64
  %19 = and i64 %18, 1
  %.not32 = icmp eq i64 %19, 0
  br i1 %.not32, label %20, label %lean_inc.exit

20:                                               ; preds = %lean_inc.exit24
  %.val.i25 = load i32, ptr %0, align 4, !tbaa !8
  %21 = icmp sgt i32 %.val.i25, 0
  br i1 %21, label %22, label %24, !prof !11

22:                                               ; preds = %20
  %23 = add nuw i32 %.val.i25, 1
  store i32 %23, ptr %0, align 4, !tbaa !8
  br label %lean_inc.exit

24:                                               ; preds = %20
  %.not.i26 = icmp eq i32 %.val.i25, 0
  br i1 %.not.i26, label %lean_inc.exit, label %25

25:                                               ; preds = %24
  tail call void @lean_inc_ref_cold(ptr noundef nonnull %0) #5
  br label %lean_inc.exit

lean_inc.exit:                                    ; preds = %25, %24, %22, %lean_inc.exit24
  %26 = tail call ptr @l_Lean_mkAppB(ptr noundef %9, ptr noundef %0, ptr noundef %1) #5
  %27 = load ptr, ptr @l_Lean_Elab_Tactic_BVDecide_Frontend_Normalize_bool__and___lambda__5___closed__6, align 8, !tbaa !4
  %28 = tail call ptr @l_Lean_mkAppB(ptr noundef %27, ptr noundef %0, ptr noundef %1) #5
  tail call void @lean_inc_heartbeat() #5
  %29 = tail call noalias ptr @mi_malloc_small(i64 noundef 16) #5
  %30 = icmp eq ptr %29, null
  br i1 %30, label %31, label %lean_alloc_ctor.exit

31:                                               ; preds = %lean_inc.exit
  tail call void @lean_internal_panic_out_of_memory() #6
  unreachable

lean_alloc_ctor.exit:                             ; preds = %lean_inc.exit
  %32 = getelementptr inbounds nuw i8, ptr %29, i64 4
  store i32 1, ptr %29, align 4, !tbaa !8
  store i32 16842768, ptr %32, align 4
  %33 = getelementptr inbounds nuw i8, ptr %29, i64 8
  store ptr %28, ptr %33, align 8, !tbaa !4
  tail call void @lean_inc_heartbeat() #5
  %34 = tail call noalias ptr @mi_malloc_small(i64 noundef 32) #5
  %35 = icmp eq ptr %34, null
  br i1 %35, label %36, label %lean_alloc_ctor.exit28

36:                                               ; preds = %lean_alloc_ctor.exit
  tail call void @lean_internal_panic_out_of_memory() #6
  unreachable

lean_alloc_ctor.exit28:                           ; preds = %lean_alloc_ctor.exit
  %37 = getelementptr inbounds nuw i8, ptr %34, i64 4
  %38 = getelementptr inbounds nuw i8, ptr %34, i64 24
  store i64 1, ptr %38, align 8, !tbaa !12
  store i32 1, ptr %34, align 4, !tbaa !8
  store i32 131104, ptr %37, align 4
  %39 = getelementptr inbounds nuw i8, ptr %34, i64 8
  store ptr %26, ptr %39, align 8, !tbaa !4
  %40 = getelementptr inbounds nuw i8, ptr %34, i64 16
  store ptr %29, ptr %40, align 8, !tbaa !4
  tail call void @lean_inc_heartbeat() #5
  %41 = tail call noalias ptr @mi_malloc_small(i64 noundef 16) #5
  %42 = icmp eq ptr %41, null
  br i1 %42, label %43, label %lean_alloc_ctor.exit29

43:                                               ; preds = %lean_alloc_ctor.exit28
  tail call void @lean_internal_panic_out_of_memory() #6
  unreachable

lean_alloc_ctor.exit29:                           ; preds = %lean_alloc_ctor.exit28
  %44 = getelementptr inbounds nuw i8, ptr %41, i64 4
  store i32 1, ptr %41, align 4, !tbaa !8
  store i32 16842768, ptr %44, align 4
  %45 = getelementptr inbounds nuw i8, ptr %41, i64 8
  store ptr %34, ptr %45, align 8, !tbaa !4
  tail call void @lean_inc_heartbeat() #5
  %46 = tail call noalias ptr @mi_malloc_small(i64 noundef 16) #5
  %47 = icmp eq ptr %46, null
  br i1 %47, label %48, label %lean_alloc_ctor.exit30

48:                                               ; preds = %lean_alloc_ctor.exit29
  tail call void @lean_internal_panic_out_of_memory() #6
  unreachable

lean_alloc_ctor.exit30:                           ; preds = %lean_alloc_ctor.exit29
  %49 = getelementptr inbounds nuw i8, ptr %46, i64 4
  store i32 1, ptr %46, align 4, !tbaa !8
  store i32 16842768, ptr %49, align 4
  %50 = getelementptr inbounds nuw i8, ptr %46, i64 8
  store ptr %41, ptr %50, align 8, !tbaa !4
  tail call void @lean_inc_heartbeat() #5
  %51 = tail call noalias ptr @mi_malloc_small(i64 noundef 24) #5
  %52 = icmp eq ptr %51, null
  br i1 %52, label %53, label %lean_alloc_ctor.exit31

53:                                               ; preds = %lean_alloc_ctor.exit30
  tail call void @lean_internal_panic_out_of_memory() #6
  unreachable

lean_alloc_ctor.exit31:                           ; preds = %lean_alloc_ctor.exit30
  %54 = getelementptr inbounds nuw i8, ptr %51, i64 4
  store i32 1, ptr %51, align 4, !tbaa !8
  store i32 131096, ptr %54, align 4
  %55 = getelementptr inbounds nuw i8, ptr %51, i64 8
  store ptr %46, ptr %55, align 8, !tbaa !4
  %56 = getelementptr inbounds nuw i8, ptr %51, i64 16
  store ptr %7, ptr %56, align 8, !tbaa !4
  ret ptr %51
}